; ModuleID = '35/1818.c'
source_filename = "35/1818.c"
target datalayout = "e-m:e-p270:32:32-p271:32:32-p272:64:64-i64:64-f80:128-n8:16:32:64-S128"
target triple = "x86_64-pc-linux-gnu"

@.str = private unnamed_addr constant [6 x i8] c"%d,%d\00", align 1
@.str.1 = private unnamed_addr constant [3 x i8] c"%d\00", align 1
@.str.2 = private unnamed_addr constant [3 x i8] c"No\00", align 1
@.str.3 = private unnamed_addr constant [6 x i8] c"%d+%d\00", align 1

; Function Attrs: noinline nounwind uwtable
define dso_local i32 @main() #0 {
  %1 = alloca i32, align 4
  %2 = alloca i32, align 4
  %3 = alloca i32, align 4
  %4 = alloca [99 x [99 x i32]], align 16
  %5 = alloca i32, align 4
  %6 = alloca i32, align 4
  %7 = alloca i32, align 4
  %8 = alloca i32, align 4
  %9 = alloca i32, align 4
  %10 = alloca i32, align 4
  %11 = alloca i32, align 4
  %12 = alloca i32, align 4
  store i32 0, i32* %1, align 4
  store i32 0, i32* %12, align 4
  %13 = call i32 (i8*, ...) @__isoc99_scanf(i8* getelementptr inbounds ([6 x i8], [6 x i8]* @.str, i64 0, i64 0), i32* %2, i32* %3)
  store i32 0, i32* %5, align 4
  br label %14

14:                                               ; preds = %35, %0
  %15 = load i32, i32* %5, align 4
  %16 = load i32, i32* %2, align 4
  %17 = icmp slt i32 %15, %16
  br i1 %17, label %18, label %38

18:                                               ; preds = %14
  store i32 0, i32* %6, align 4
  br label %19

19:                                               ; preds = %31, %18
  %20 = load i32, i32* %6, align 4
  %21 = load i32, i32* %3, align 4
  %22 = icmp slt i32 %20, %21
  br i1 %22, label %23, label %34

23:                                               ; preds = %19
  %24 = load i32, i32* %5, align 4
  %25 = sext i32 %24 to i64
  %26 = getelementptr inbounds [99 x [99 x i32]], [99 x [99 x i32]]* %4, i64 0, i64 %25
  %27 = load i32, i32* %6, align 4
  %28 = sext i32 %27 to i64
  %29 = getelementptr inbounds [99 x i32], [99 x i32]* %26, i64 0, i64 %28
  %30 = call i32 (i8*, ...) @__isoc99_scanf(i8* getelementptr inbounds ([3 x i8], [3 x i8]* @.str.1, i64 0, i64 0), i32* %29)
  br label %31

31:                                               ; preds = %23
  %32 = load i32, i32* %6, align 4
  %33 = add nsw i32 %32, 1
  store i32 %33, i32* %6, align 4
  br label %19

34:                                               ; preds = %19
  br label %35

35:                                               ; preds = %34
  %36 = load i32, i32* %5, align 4
  %37 = add nsw i32 %36, 1
  store i32 %37, i32* %5, align 4
  br label %14

38:                                               ; preds = %14
  store i32 0, i32* %5, align 4
  br label %39

39:                                               ; preds = %121, %38
  %40 = load i32, i32* %5, align 4
  %41 = load i32, i32* %2, align 4
  %42 = icmp slt i32 %40, %41
  br i1 %42, label %43, label %124

43:                                               ; preds = %39
  store i32 0, i32* %6, align 4
  br label %44

44:                                               ; preds = %117, %43
  %45 = load i32, i32* %6, align 4
  %46 = load i32, i32* %3, align 4
  %47 = icmp slt i32 %45, %46
  br i1 %47, label %48, label %120

48:                                               ; preds = %44
  store i32 0, i32* %11, align 4
  store i32 0, i32* %7, align 4
  br label %49

49:                                               ; preds = %76, %48
  %50 = load i32, i32* %7, align 4
  %51 = load i32, i32* %2, align 4
  %52 = icmp slt i32 %50, %51
  br i1 %52, label %53, label %79

53:                                               ; preds = %49
  %54 = load i32, i32* %7, align 4
  %55 = load i32, i32* %5, align 4
  %56 = icmp eq i32 %54, %55
  br i1 %56, label %57, label %58

57:                                               ; preds = %53
  br label %76

58:                                               ; preds = %53
  %59 = load i32, i32* %7, align 4
  %60 = sext i32 %59 to i64
  %61 = getelementptr inbounds [99 x [99 x i32]], [99 x [99 x i32]]* %4, i64 0, i64 %60
  %62 = load i32, i32* %6, align 4
  %63 = sext i32 %62 to i64
  %64 = getelementptr inbounds [99 x i32], [99 x i32]* %61, i64 0, i64 %63
  %65 = load i32, i32* %64, align 4
  %66 = load i32, i32* %5, align 4
  %67 = sext i32 %66 to i64
  %68 = getelementptr inbounds [99 x [99 x i32]], [99 x [99 x i32]]* %4, i64 0, i64 %67
  %69 = load i32, i32* %6, align 4
  %70 = sext i32 %69 to i64
  %71 = getelementptr inbounds [99 x i32], [99 x i32]* %68, i64 0, i64 %70
  %72 = load i32, i32* %71, align 4
  %73 = icmp sle i32 %65, %72
  br i1 %73, label %74, label %75

74:                                               ; preds = %58
  store i32 1, i32* %11, align 4
  br label %75

75:                                               ; preds = %74, %58
  br label %76

76:                                               ; preds = %75, %57
  %77 = load i32, i32* %7, align 4
  %78 = add nsw i32 %77, 1
  store i32 %78, i32* %7, align 4
  br label %49

79:                                               ; preds = %49
  store i32 0, i32* %8, align 4
  br label %80

80:                                               ; preds = %107, %79
  %81 = load i32, i32* %8, align 4
  %82 = load i32, i32* %3, align 4
  %83 = icmp slt i32 %81, %82
  br i1 %83, label %84, label %110

84:                                               ; preds = %80
  %85 = load i32, i32* %8, align 4
  %86 = load i32, i32* %6, align 4
  %87 = icmp eq i32 %85, %86
  br i1 %87, label %88, label %89

88:                                               ; preds = %84
  br label %107

89:                                               ; preds = %84
  %90 = load i32, i32* %5, align 4
  %91 = sext i32 %90 to i64
  %92 = getelementptr inbounds [99 x [99 x i32]], [99 x [99 x i32]]* %4, i64 0, i64 %91
  %93 = load i32, i32* %8, align 4
  %94 = sext i32 %93 to i64
  %95 = getelementptr inbounds [99 x i32], [99 x i32]* %92, i64 0, i64 %94
  %96 = load i32, i32* %95, align 4
  %97 = load i32, i32* %5, align 4
  %98 = sext i32 %97 to i64
  %99 = getelementptr inbounds [99 x [99 x i32]], [99 x [99 x i32]]* %4, i64 0, i64 %98
  %100 = load i32, i32* %6, align 4
  %101 = sext i32 %100 to i64
  %102 = getelementptr inbounds [99 x i32], [99 x i32]* %99, i64 0, i64 %101
  %103 = load i32, i32* %102, align 4
  %104 = icmp sge i32 %96, %103
  br i1 %104, label %105, label %106

105:                                              ; preds = %89
  store i32 1, i32* %11, align 4
  br label %106

106:                                              ; preds = %105, %89
  br label %107

107:                                              ; preds = %106, %88
  %108 = load i32, i32* %8, align 4
  %109 = add nsw i32 %108, 1
  store i32 %109, i32* %8, align 4
  br label %80

110:                                              ; preds = %80
  %111 = load i32, i32* %11, align 4
  %112 = icmp eq i32 %111, 1
  br i1 %112, label %113, label %114

113:                                              ; preds = %110
  br label %117

114:                                              ; preds = %110
  store i32 1, i32* %12, align 4
  %115 = load i32, i32* %5, align 4
  store i32 %115, i32* %9, align 4
  %116 = load i32, i32* %6, align 4
  store i32 %116, i32* %10, align 4
  br label %117

117:                                              ; preds = %114, %113
  %118 = load i32, i32* %6, align 4
  %119 = add nsw i32 %118, 1
  store i32 %119, i32* %6, align 4
  br label %44

120:                                              ; preds = %44
  br label %121

121:                                              ; preds = %120
  %122 = load i32, i32* %5, align 4
  %123 = add nsw i32 %122, 1
  store i32 %123, i32* %5, align 4
  br label %39

124:                                              ; preds = %39
  %125 = load i32, i32* %12, align 4
  %126 = icmp eq i32 %125, 0
  br i1 %126, label %127, label %129

127:                                              ; preds = %124
  %128 = call i32 (i8*, ...) @printf(i8* getelementptr inbounds ([3 x i8], [3 x i8]* @.str.2, i64 0, i64 0))
  br label %129

129:                                              ; preds = %127, %124
  %130 = load i32, i32* %12, align 4
  %131 = icmp eq i32 %130, 1
  br i1 %131, label %132, label %136

132:                                              ; preds = %129
  %133 = load i32, i32* %9, align 4
  %134 = load i32, i32* %10, align 4
  %135 = call i32 (i8*, ...) @printf(i8* getelementptr inbounds ([6 x i8], [6 x i8]* @.str.3, i64 0, i64 0), i32 %133, i32 %134)
  br label %136

136:                                              ; preds = %132, %129
  ret i32 0
}

declare dso_local i32 @__isoc99_scanf(i8*, ...) #1

declare dso_local i32 @printf(i8*, ...) #1


!llvm.module.flags = !{!0}
!llvm.ident = !{!1}

!0 = !{i32 1, !"wchar_size", i32 4}
!1 = !{!"clang version 10.0.0-4ubuntu1 "}
